; Function Attrs: mustprogress uwtable
define hidden noalias noundef ptr @_ZN7datalog21bound_relation_plugin18mk_filter_equal_fnERKNS_13relation_baseERKP3appj(ptr noundef nonnull readnone align 8 captures(address) dereferenceable(128) %0, ptr noundef nonnull readonly align 8 captures(none) dereferenceable(28) %1, ptr nonnull readnone align 8 captures(none) %2, i32 %3) unnamed_addr #3 align 2 {
  %5 = getelementptr inbounds nuw i8, ptr %1, i64 8
  %6 = load ptr, ptr %5, align 8, !tbaa !54
  %7 = icmp eq ptr %6, %0
  br i1 %7, label %8, label %10

8:                                                ; preds = %4
  %9 = tail call noalias noundef ptr @_ZN6memory8allocateEm(i64 noundef 8)
  store ptr getelementptr inbounds nuw inrange(-16, 40) (i8, ptr @_ZTVN7datalog21bound_relation_plugin15filter_equal_fnE, i64 16), ptr %9, align 8, !tbaa !17
  br label %10

10:                                               ; preds = %4, %8
  %.0 = phi ptr [ %9, %8 ], [ null, %4 ]
  ret ptr %.0
}